target datalayout = "e-m:e-p270:32:32-p271:32:32-p272:64:64-i64:64-i128:128-f80:128-n8:16:32:64-S128"
target triple = "x86_64-pc-linux-gnu"

%class.CompilerDirectives = type { ptr, ptr, i32, ptr, ptr }

@_ZN15DirectivesStack4_topE = external global ptr, align 8
@_ZN15DirectivesStack6_depthE = external global i32, align 4
@_ZN18CompilerDirectivesD1Ev = hidden unnamed_addr alias void (ptr), ptr @_ZN18CompilerDirectivesD2Ev

; Function Attrs: mustprogress nounwind uwtable
define linkonce_odr hidden void @_ZN12CHeapObjBasedlEPv(ptr noundef %0) #1 comdat align 2 {
  %2 = alloca ptr, align 8
  store ptr %0, ptr %2, align 8
  %3 = load ptr, ptr %2, align 8
  call void @_Z8FreeHeapPv(ptr noundef %3)
  ret void
}

; Function Attrs: mustprogress nounwind uwtable
define linkonce_odr hidden void @_ZN8CHeapObjIL8MEMFLAGS7EEdlEPv(ptr noundef %0) #1 comdat align 2 {
  %2 = alloca ptr, align 8
  store ptr %0, ptr %2, align 8
  %3 = load ptr, ptr %2, align 8
  call void @_ZN12CHeapObjBasedlEPv(ptr noundef %3) #9
  ret void
}

; Function Attrs: mustprogress nounwind uwtable
define hidden noundef i32 @_ZN18CompilerDirectives8refcountEv(ptr noundef nonnull align 8 dereferenceable(40) %0) #1 align 2 {
  %2 = alloca ptr, align 8
  store ptr %0, ptr %2, align 8
  %3 = load ptr, ptr %2, align 8
  %4 = getelementptr inbounds %class.CompilerDirectives, ptr %3, i32 0, i32 2
  %5 = load i32, ptr %4, align 8
  ret i32 %5
}

; Function Attrs: mustprogress nounwind uwtable
define hidden void @_ZN18CompilerDirectives12dec_refcountEv(ptr noundef nonnull align 8 dereferenceable(40) %0) #1 align 2 {
  %2 = alloca ptr, align 8
  store ptr %0, ptr %2, align 8
  %3 = load ptr, ptr %2, align 8
  %4 = getelementptr inbounds %class.CompilerDirectives, ptr %3, i32 0, i32 2
  %5 = load i32, ptr %4, align 8
  %6 = add nsw i32 %5, -1
  store i32 %6, ptr %4, align 8
  ret void
}

; Function Attrs: mustprogress nounwind uwtable
define hidden void @_ZN15DirectivesStack7releaseEP18CompilerDirectives(ptr noundef %0) #1 align 2 {
  %2 = alloca ptr, align 8
  store ptr %0, ptr %2, align 8
  %3 = load ptr, ptr %2, align 8
  call void @_ZN18CompilerDirectives12dec_refcountEv(ptr noundef nonnull align 8 dereferenceable(40) %3)
  %4 = load ptr, ptr %2, align 8
  %5 = call noundef i32 @_ZN18CompilerDirectives8refcountEv(ptr noundef nonnull align 8 dereferenceable(40) %4)
  %6 = icmp eq i32 %5, 0
  br i1 %6, label %7, label %12

7:                                                ; preds = %1
  %8 = load ptr, ptr %2, align 8
  %9 = icmp eq ptr %8, null
  br i1 %9, label %11, label %10

10:                                               ; preds = %7
  call void @_ZN18CompilerDirectivesD1Ev(ptr noundef nonnull align 8 dereferenceable(40) %8) #9
  call void @_ZN8CHeapObjIL8MEMFLAGS7EEdlEPv(ptr noundef %8) #9
  br label %11

11:                                               ; preds = %10, %7
  br label %12

12:                                               ; preds = %11, %1
  ret void
}

; Function Attrs: mustprogress nounwind uwtable
define hidden noundef ptr @_ZN18CompilerDirectives4nextEv(ptr noundef nonnull align 8 dereferenceable(40) %0) #1 align 2 {
  %2 = alloca ptr, align 8
  store ptr %0, ptr %2, align 8
  %3 = load ptr, ptr %2, align 8
  %4 = getelementptr inbounds %class.CompilerDirectives, ptr %3, i32 0, i32 0
  %5 = load ptr, ptr %4, align 8
  ret ptr %5
}

; Function Attrs: mustprogress nounwind uwtable
define hidden void @_ZN15DirectivesStack9pop_innerEv() #1 align 2 {
  %1 = alloca ptr, align 8
  %2 = load ptr, ptr @_ZN15DirectivesStack4_topE, align 8
  %3 = call noundef ptr @_ZN18CompilerDirectives4nextEv(ptr noundef nonnull align 8 dereferenceable(40) %2)
  %4 = icmp eq ptr %3, null
  br i1 %4, label %5, label %6

5:                                                ; preds = %0
  br label %13

6:                                                ; preds = %0
  %7 = load ptr, ptr @_ZN15DirectivesStack4_topE, align 8
  store ptr %7, ptr %1, align 8
  %8 = load ptr, ptr @_ZN15DirectivesStack4_topE, align 8
  %9 = call noundef ptr @_ZN18CompilerDirectives4nextEv(ptr noundef nonnull align 8 dereferenceable(40) %8)
  store ptr %9, ptr @_ZN15DirectivesStack4_topE, align 8
  %10 = load i32, ptr @_ZN15DirectivesStack6_depthE, align 4
  %11 = add nsw i32 %10, -1
  store i32 %11, ptr @_ZN15DirectivesStack6_depthE, align 4
  %12 = load ptr, ptr %1, align 8
  call void @_ZN15DirectivesStack7releaseEP18CompilerDirectives(ptr noundef %12)
  br label %13

13:                                               ; preds = %6, %5
  ret void
}