; Function Attrs: mustprogress nounwind uwtable
define hidden void @_ZN15DirectivesStack9pop_innerEv() local_unnamed_addr #0 align 2 {
  %1 = load ptr, ptr @_ZN15DirectivesStack4_topE, align 8
  %2 = load ptr, ptr %1, align 8
  %3 = icmp eq ptr %2, null
  br i1 %3, label %_ZN15DirectivesStack7releaseEP18CompilerDirectives.exit, label %4

4:                                                ; preds = %0
  store ptr %2, ptr @_ZN15DirectivesStack4_topE, align 8
  %5 = load i32, ptr @_ZN15DirectivesStack6_depthE, align 4
  %6 = add nsw i32 %5, -1
  store i32 %6, ptr @_ZN15DirectivesStack6_depthE, align 4
  %7 = getelementptr inbounds i8, ptr %1, i64 16
  %8 = load i32, ptr %7, align 8
  %9 = add nsw i32 %8, -1
  store i32 %9, ptr %7, align 8
  %10 = icmp eq i32 %9, 0
  br i1 %10, label %11, label %_ZN15DirectivesStack7releaseEP18CompilerDirectives.exit

11:                                               ; preds = %4
  tail call void @_ZN18CompilerDirectivesD2Ev(ptr noundef nonnull align 8 dereferenceable(40) %1) #14
  tail call void @_Z8FreeHeapPv(ptr noundef nonnull %1) #14
  br label %_ZN15DirectivesStack7releaseEP18CompilerDirectives.exit

_ZN15DirectivesStack7releaseEP18CompilerDirectives.exit: ; preds = %11, %4, %0
  ret void
}